target datalayout = "e-m:e-p270:32:32-p271:32:32-p272:64:64-i64:64-i128:128-f80:128-n8:16:32:64-S128"
target triple = "x86_64-pc-linux-gnu"

%"class.icu_77::RBBINode" = type { i32, ptr, ptr, ptr, ptr, i32, %"class.icu_77::UnicodeString", i32, i32, i8, i32, i8, i8, i8, ptr, ptr, ptr }
%"class.icu_77::UnicodeString" = type { %"class.icu_77::Replaceable", %"union.icu_77::UnicodeString::StackBufferOrFields" }
%"class.icu_77::Replaceable" = type { %"class.icu_77::UObject" }
%"class.icu_77::UObject" = type { ptr }
%"union.icu_77::UnicodeString::StackBufferOrFields" = type { %struct.anon.0, [32 x i8] }
%struct.anon.0 = type { i16, i32, i32, ptr }

; Function Attrs: inlinehint mustprogress nounwind uwtable
define internal noundef signext i8 @_ZL9U_FAILURE10UErrorCode(i32 noundef %0) #2 {
  %2 = alloca i32, align 4
  store i32 %0, ptr %2, align 4, !tbaa !15
  %3 = load i32, ptr %2, align 4, !tbaa !15
  %4 = icmp sgt i32 %3, 0
  %5 = zext i1 %4 to i8
  ret i8 %5
}

; Function Attrs: mustprogress uwtable
define void @_ZN6icu_778RBBINode9findNodesEPNS_7UVectorENS0_8NodeTypeER10UErrorCode(ptr noundef nonnull align 8 dereferenceable(160) %0, ptr noundef %1, i32 noundef %2, ptr noundef nonnull align 4 dereferenceable(4) %3) #1 align 2 {
  %5 = alloca ptr, align 8
  %6 = alloca ptr, align 8
  %7 = alloca i32, align 4
  %8 = alloca ptr, align 8
  store ptr %0, ptr %5, align 8, !tbaa !23
  store ptr %1, ptr %6, align 8, !tbaa !57
  store i32 %2, ptr %7, align 4, !tbaa !25
  store ptr %3, ptr %8, align 8, !tbaa !22
  %9 = load ptr, ptr %5, align 8
  %10 = load ptr, ptr %8, align 8, !tbaa !22
  %11 = load i32, ptr %10, align 4, !tbaa !15
  %12 = call noundef signext i8 @_ZL9U_FAILURE10UErrorCode(i32 noundef %11)
  %13 = icmp ne i8 %12, 0
  br i1 %13, label %14, label %15

14:                                               ; preds = %4
  br label %43

15:                                               ; preds = %4
  %16 = getelementptr inbounds nuw %"class.icu_77::RBBINode", ptr %9, i32 0, i32 0
  %17 = load i32, ptr %16, align 8, !tbaa !27
  %18 = load i32, ptr %7, align 4, !tbaa !25
  %19 = icmp eq i32 %17, %18
  br i1 %19, label %20, label %23

20:                                               ; preds = %15
  %21 = load ptr, ptr %6, align 8, !tbaa !57
  %22 = load ptr, ptr %8, align 8, !tbaa !22
  call void @_ZN6icu_777UVector10addElementEPvR10UErrorCode(ptr noundef nonnull align 8 dereferenceable(40) %21, ptr noundef %9, ptr noundef nonnull align 4 dereferenceable(4) %22)
  br label %23

23:                                               ; preds = %20, %15
  %24 = getelementptr inbounds nuw %"class.icu_77::RBBINode", ptr %9, i32 0, i32 2
  %25 = load ptr, ptr %24, align 8, !tbaa !36
  %26 = icmp ne ptr %25, null
  br i1 %26, label %27, label %33

27:                                               ; preds = %23
  %28 = getelementptr inbounds nuw %"class.icu_77::RBBINode", ptr %9, i32 0, i32 2
  %29 = load ptr, ptr %28, align 8, !tbaa !36
  %30 = load ptr, ptr %6, align 8, !tbaa !57
  %31 = load i32, ptr %7, align 4, !tbaa !25
  %32 = load ptr, ptr %8, align 8, !tbaa !22
  call void @_ZN6icu_778RBBINode9findNodesEPNS_7UVectorENS0_8NodeTypeER10UErrorCode(ptr noundef nonnull align 8 dereferenceable(160) %29, ptr noundef %30, i32 noundef %31, ptr noundef nonnull align 4 dereferenceable(4) %32)
  br label %33

33:                                               ; preds = %27, %23
  %34 = getelementptr inbounds nuw %"class.icu_77::RBBINode", ptr %9, i32 0, i32 3
  %35 = load ptr, ptr %34, align 8, !tbaa !37
  %36 = icmp ne ptr %35, null
  br i1 %36, label %37, label %43

37:                                               ; preds = %33
  %38 = getelementptr inbounds nuw %"class.icu_77::RBBINode", ptr %9, i32 0, i32 3
  %39 = load ptr, ptr %38, align 8, !tbaa !37
  %40 = load ptr, ptr %6, align 8, !tbaa !57
  %41 = load i32, ptr %7, align 4, !tbaa !25
  %42 = load ptr, ptr %8, align 8, !tbaa !22
  call void @_ZN6icu_778RBBINode9findNodesEPNS_7UVectorENS0_8NodeTypeER10UErrorCode(ptr noundef nonnull align 8 dereferenceable(160) %39, ptr noundef %40, i32 noundef %41, ptr noundef nonnull align 4 dereferenceable(4) %42)
  br label %43

43:                                               ; preds = %14, %37, %33
  ret void
}