; Function Attrs: mustprogress uwtable
define void @_ZN6icu_778RBBINode9findNodesEPNS_7UVectorENS0_8NodeTypeER10UErrorCode(ptr noundef nonnull align 8 dereferenceable(160) %0, ptr noundef %1, i32 noundef %2, ptr noundef nonnull align 4 dereferenceable(4) %3) local_unnamed_addr #1 align 2 {
  br label %tailrecurse

tailrecurse:                                      ; preds = %15, %4
  %.tr = phi ptr [ %0, %4 ], [ %17, %15 ]
  %5 = load i32, ptr %3, align 4, !tbaa !13
  %6 = icmp slt i32 %5, 1
  br i1 %6, label %7, label %18

7:                                                ; preds = %tailrecurse
  %8 = load i32, ptr %.tr, align 8, !tbaa !18
  %9 = icmp eq i32 %8, %2
  br i1 %9, label %10, label %11

10:                                               ; preds = %7
  tail call void @_ZN6icu_777UVector10addElementEPvR10UErrorCode(ptr noundef nonnull align 8 dereferenceable(40) %1, ptr noundef nonnull %.tr, ptr noundef nonnull align 4 dereferenceable(4) %3)
  br label %11

11:                                               ; preds = %10, %7
  %12 = getelementptr inbounds nuw i8, ptr %.tr, i64 16
  %13 = load ptr, ptr %12, align 8, !tbaa !39
  %.not11 = icmp eq ptr %13, null
  br i1 %.not11, label %15, label %14

14:                                               ; preds = %11
  tail call void @_ZN6icu_778RBBINode9findNodesEPNS_7UVectorENS0_8NodeTypeER10UErrorCode(ptr noundef nonnull align 8 dereferenceable(160) %13, ptr noundef %1, i32 noundef %2, ptr noundef nonnull align 4 dereferenceable(4) %3)
  br label %15

15:                                               ; preds = %14, %11
  %16 = getelementptr inbounds nuw i8, ptr %.tr, i64 24
  %17 = load ptr, ptr %16, align 8, !tbaa !41
  %.not12 = icmp eq ptr %17, null
  br i1 %.not12, label %18, label %tailrecurse

18:                                               ; preds = %tailrecurse, %15
  ret void
}